; ModuleID = '24/405.c'
source_filename = "24/405.c"
target datalayout = "e-m:e-p270:32:32-p271:32:32-p272:64:64-i64:64-f80:128-n8:16:32:64-S128"
target triple = "x86_64-pc-linux-gnu"

; Function Attrs: noinline nounwind uwtable
define dso_local void @main() #0 {
  %1 = alloca i32, align 4
  %2 = alloca i32, align 4
  %3 = alloca i32, align 4
  %4 = alloca i32, align 4
  %5 = alloca i32, align 4
  %6 = alloca i32, align 4
  %7 = alloca [100 x i8], align 16
  %8 = alloca [50 x [30 x i8]], align 16
  %9 = alloca i32, align 4
  %10 = alloca i32, align 4
  store i32 0, i32* %1, align 4
  store i32 -1, i32* %4, align 4
  store i32 0, i32* %5, align 4
  store i32 0, i32* %6, align 4
  %11 = bitcast [50 x [30 x i8]]* %8 to i8*
  call void @llvm.memset.p0i8.i64(i8* align 16 %11, i8 0, i64 1500, i1 false)
  %12 = getelementptr inbounds [100 x i8], [100 x i8]* %7, i64 0, i64 0
  %13 = call i32 (i8*, ...) bitcast (i32 (...)* @gets to i32 (i8*, ...)*)(i8* %12)
  %14 = getelementptr inbounds [100 x i8], [100 x i8]* %7, i64 0, i64 0
  %15 = call i64 @strlen(i8* %14) #4
  %16 = trunc i64 %15 to i32
  store i32 %16, i32* %2, align 4
  store i32 0, i32* %3, align 4
  br label %17

17:                                               ; preds = %80, %0
  %18 = load i32, i32* %3, align 4
  %19 = load i32, i32* %2, align 4
  %20 = icmp slt i32 %18, %19
  br i1 %20, label %21, label %83

21:                                               ; preds = %17
  %22 = load i32, i32* %3, align 4
  %23 = sext i32 %22 to i64
  %24 = getelementptr inbounds [100 x i8], [100 x i8]* %7, i64 0, i64 %23
  %25 = load i8, i8* %24, align 1
  %26 = sext i8 %25 to i32
  %27 = icmp eq i32 %26, 32
  br i1 %27, label %28, label %29

28:                                               ; preds = %21
  store i32 0, i32* %1, align 4
  br label %79

29:                                               ; preds = %21
  %30 = load i32, i32* %3, align 4
  %31 = sext i32 %30 to i64
  %32 = getelementptr inbounds [100 x i8], [100 x i8]* %7, i64 0, i64 %31
  %33 = load i8, i8* %32, align 1
  %34 = sext i8 %33 to i32
  %35 = icmp ne i32 %34, 32
  br i1 %35, label %36, label %54

36:                                               ; preds = %29
  %37 = load i32, i32* %1, align 4
  %38 = icmp eq i32 %37, 0
  br i1 %38, label %39, label %54

39:                                               ; preds = %36
  %40 = load i32, i32* %4, align 4
  %41 = add nsw i32 %40, 1
  store i32 %41, i32* %4, align 4
  store i32 0, i32* %5, align 4
  %42 = load i32, i32* %3, align 4
  %43 = sext i32 %42 to i64
  %44 = getelementptr inbounds [100 x i8], [100 x i8]* %7, i64 0, i64 %43
  %45 = load i8, i8* %44, align 1
  %46 = load i32, i32* %4, align 4
  %47 = sext i32 %46 to i64
  %48 = getelementptr inbounds [50 x [30 x i8]], [50 x [30 x i8]]* %8, i64 0, i64 %47
  %49 = load i32, i32* %5, align 4
  %50 = sext i32 %49 to i64
  %51 = getelementptr inbounds [30 x i8], [30 x i8]* %48, i64 0, i64 %50
  store i8 %45, i8* %51, align 1
  %52 = load i32, i32* %5, align 4
  %53 = add nsw i32 %52, 1
  store i32 %53, i32* %5, align 4
  store i32 1, i32* %1, align 4
  br label %78

54:                                               ; preds = %36, %29
  %55 = load i32, i32* %3, align 4
  %56 = sext i32 %55 to i64
  %57 = getelementptr inbounds [100 x i8], [100 x i8]* %7, i64 0, i64 %56
  %58 = load i8, i8* %57, align 1
  %59 = sext i8 %58 to i32
  %60 = icmp ne i32 %59, 32
  br i1 %60, label %61, label %77

61:                                               ; preds = %54
  %62 = load i32, i32* %1, align 4
  %63 = icmp eq i32 %62, 1
  br i1 %63, label %64, label %77

64:                                               ; preds = %61
  %65 = load i32, i32* %3, align 4
  %66 = sext i32 %65 to i64
  %67 = getelementptr inbounds [100 x i8], [100 x i8]* %7, i64 0, i64 %66
  %68 = load i8, i8* %67, align 1
  %69 = load i32, i32* %4, align 4
  %70 = sext i32 %69 to i64
  %71 = getelementptr inbounds [50 x [30 x i8]], [50 x [30 x i8]]* %8, i64 0, i64 %70
  %72 = load i32, i32* %5, align 4
  %73 = sext i32 %72 to i64
  %74 = getelementptr inbounds [30 x i8], [30 x i8]* %71, i64 0, i64 %73
  store i8 %68, i8* %74, align 1
  %75 = load i32, i32* %5, align 4
  %76 = add nsw i32 %75, 1
  store i32 %76, i32* %5, align 4
  br label %77

77:                                               ; preds = %64, %61, %54
  br label %78

78:                                               ; preds = %77, %39
  br label %79

79:                                               ; preds = %78, %28
  br label %80

80:                                               ; preds = %79
  %81 = load i32, i32* %3, align 4
  %82 = add nsw i32 %81, 1
  store i32 %82, i32* %3, align 4
  br label %17

83:                                               ; preds = %17
  store i32 0, i32* %9, align 4
  store i32 0, i32* %10, align 4
  store i32 1, i32* %3, align 4
  br label %84

84:                                               ; preds = %117, %83
  %85 = load i32, i32* %3, align 4
  %86 = load i32, i32* %4, align 4
  %87 = icmp sle i32 %85, %86
  br i1 %87, label %88, label %120

88:                                               ; preds = %84
  %89 = load i32, i32* %9, align 4
  %90 = sext i32 %89 to i64
  %91 = getelementptr inbounds [50 x [30 x i8]], [50 x [30 x i8]]* %8, i64 0, i64 %90
  %92 = getelementptr inbounds [30 x i8], [30 x i8]* %91, i64 0, i64 0
  %93 = call i64 @strlen(i8* %92) #4
  %94 = load i32, i32* %3, align 4
  %95 = sext i32 %94 to i64
  %96 = getelementptr inbounds [50 x [30 x i8]], [50 x [30 x i8]]* %8, i64 0, i64 %95
  %97 = getelementptr inbounds [30 x i8], [30 x i8]* %96, i64 0, i64 0
  %98 = call i64 @strlen(i8* %97) #4
  %99 = icmp ult i64 %93, %98
  br i1 %99, label %100, label %102

100:                                              ; preds = %88
  %101 = load i32, i32* %3, align 4
  store i32 %101, i32* %9, align 4
  br label %102

102:                                              ; preds = %100, %88
  %103 = load i32, i32* %10, align 4
  %104 = sext i32 %103 to i64
  %105 = getelementptr inbounds [50 x [30 x i8]], [50 x [30 x i8]]* %8, i64 0, i64 %104
  %106 = getelementptr inbounds [30 x i8], [30 x i8]* %105, i64 0, i64 0
  %107 = call i64 @strlen(i8* %106) #4
  %108 = load i32, i32* %3, align 4
  %109 = sext i32 %108 to i64
  %110 = getelementptr inbounds [50 x [30 x i8]], [50 x [30 x i8]]* %8, i64 0, i64 %109
  %111 = getelementptr inbounds [30 x i8], [30 x i8]* %110, i64 0, i64 0
  %112 = call i64 @strlen(i8* %111) #4
  %113 = icmp ugt i64 %107, %112
  br i1 %113, label %114, label %116

114:                                              ; preds = %102
  %115 = load i32, i32* %3, align 4
  store i32 %115, i32* %10, align 4
  br label %116

116:                                              ; preds = %114, %102
  br label %117

117:                                              ; preds = %116
  %118 = load i32, i32* %3, align 4
  %119 = add nsw i32 %118, 1
  store i32 %119, i32* %3, align 4
  br label %84

120:                                              ; preds = %84
  %121 = load i32, i32* %9, align 4
  %122 = sext i32 %121 to i64
  %123 = getelementptr inbounds [50 x [30 x i8]], [50 x [30 x i8]]* %8, i64 0, i64 %122
  %124 = getelementptr inbounds [30 x i8], [30 x i8]* %123, i64 0, i64 0
  %125 = call i32 @puts(i8* %124)
  %126 = load i32, i32* %10, align 4
  %127 = sext i32 %126 to i64
  %128 = getelementptr inbounds [50 x [30 x i8]], [50 x [30 x i8]]* %8, i64 0, i64 %127
  %129 = getelementptr inbounds [30 x i8], [30 x i8]* %128, i64 0, i64 0
  %130 = call i32 @puts(i8* %129)
  ret void
}

; Function Attrs: argmemonly nounwind willreturn
declare void @llvm.memset.p0i8.i64(i8* nocapture writeonly, i8, i64, i1 immarg) #1

declare dso_local i32 @gets(...) #2

; Function Attrs: nounwind readonly
declare dso_local i64 @strlen(i8*) #3

declare dso_local i32 @puts(i8*) #2


!llvm.module.flags = !{!0}
!llvm.ident = !{!1}

!0 = !{i32 1, !"wchar_size", i32 4}
!1 = !{!"clang version 10.0.0-4ubuntu1 "}
